; Function Attrs: nounwind uwtable
define hidden void @spl_add_class_name(ptr nocapture noundef readonly %0, ptr nocapture noundef readonly %1, i32 noundef %2, i32 noundef %3) local_unnamed_addr #0 {
  %5 = alloca %struct._zval_struct, align 8
  %.not = icmp eq i32 %2, 0
  br i1 %.not, label %13, label %6

6:                                                ; preds = %4
  %7 = icmp sgt i32 %2, 0
  %8 = getelementptr inbounds i8, ptr %1, i64 28
  %9 = load i32, ptr %8, align 4
  %10 = and i32 %9, %3
  %.not19 = icmp eq i32 %10, 0
  br i1 %7, label %11, label %12

11:                                               ; preds = %6
  br i1 %.not19, label %32, label %13

12:                                               ; preds = %6
  br i1 %.not19, label %13, label %32

13:                                               ; preds = %12, %11, %4
  %14 = load ptr, ptr %0, align 8
  %15 = getelementptr inbounds i8, ptr %1, i64 8
  %16 = load ptr, ptr %15, align 8
  %17 = tail call ptr @zend_hash_find(ptr noundef %14, ptr noundef %16) #4
  %18 = icmp eq ptr %17, null
  br i1 %18, label %19, label %32

19:                                               ; preds = %13
  %20 = load ptr, ptr %15, align 8
  store ptr %20, ptr %5, align 8
  %21 = getelementptr inbounds i8, ptr %20, i64 4
  %22 = load i32, ptr %21, align 4
  %23 = and i32 %22, 64
  %.not21 = icmp eq i32 %23, 0
  br i1 %.not21, label %24, label %27

24:                                               ; preds = %19
  %25 = load i32, ptr %20, align 4
  %26 = add i32 %25, 1
  store i32 %26, ptr %20, align 4
  %.pre = load ptr, ptr %15, align 8
  br label %27

27:                                               ; preds = %19, %24
  %28 = phi ptr [ %.pre, %24 ], [ %20, %19 ]
  %.sink = phi i32 [ 262, %24 ], [ 6, %19 ]
  %29 = getelementptr inbounds i8, ptr %5, i64 8
  store i32 %.sink, ptr %29, align 8
  %30 = load ptr, ptr %0, align 8
  %31 = call ptr @zend_hash_add(ptr noundef %30, ptr noundef %28, ptr noundef nonnull %5) #4
  br label %32

32:                                               ; preds = %11, %13, %27, %12
  ret void
}